; Function Attrs: nofree norecurse nosync nounwind memory(readwrite, inaccessiblemem: none) uwtable
define void @Fra_LcrAigPrepareTwo(ptr noundef readonly captures(none) %0, ptr noundef %1) local_unnamed_addr #7 {
  %3 = getelementptr inbounds nuw i8, ptr %0, i64 16
  %4 = load ptr, ptr %3, align 8
  %5 = getelementptr i8, ptr %4, i64 4
  %.val7 = load i32, ptr %5, align 4
  %6 = icmp sgt i32 %.val7, 0
  br i1 %6, label %.lr.ph, label %.critedge

.lr.ph:                                           ; preds = %2, %.lr.ph
  %indvars.iv = phi i64 [ %indvars.iv.next, %.lr.ph ], [ 0, %2 ]
  %7 = phi ptr [ %12, %.lr.ph ], [ %4, %2 ]
  %8 = getelementptr i8, ptr %7, i64 8
  %.val6 = load ptr, ptr %8, align 8
  %9 = getelementptr inbounds nuw ptr, ptr %.val6, i64 %indvars.iv
  %10 = load ptr, ptr %9, align 8
  %11 = getelementptr inbounds nuw i8, ptr %10, i64 40
  store ptr %1, ptr %11, align 8
  %indvars.iv.next = add nuw nsw i64 %indvars.iv, 1
  %12 = load ptr, ptr %3, align 8
  %13 = getelementptr i8, ptr %12, i64 4
  %.val = load i32, ptr %13, align 4
  %14 = sext i32 %.val to i64
  %15 = icmp slt i64 %indvars.iv.next, %14
  br i1 %15, label %.lr.ph, label %.critedge, !llvm.loop !8

.critedge:                                        ; preds = %.lr.ph, %2
  ret void
}